target datalayout = "e-m:e-p270:32:32-p271:32:32-p272:64:64-i64:64-i128:128-f80:128-n8:16:32:64-S128"
target triple = "x86_64-pc-linux-gnu"

%struct._lv_menu_t = type { %struct._lv_obj_t, ptr, ptr, ptr, ptr, ptr, ptr, ptr, ptr, ptr, ptr, ptr, ptr, %struct.lv_ll_t, i8, i8, i8 }
%struct._lv_obj_t = type { ptr, ptr, ptr, ptr, ptr, %struct.lv_area_t, i32, i16, i16 }
%struct.lv_area_t = type { i32, i32, i32, i32 }
%struct.lv_ll_t = type { i32, ptr, ptr }

; Function Attrs: nounwind uwtable
define internal void @lv_menu_refr_main_header_mode(ptr noundef %0) #0 {
  %2 = alloca ptr, align 8
  %3 = alloca ptr, align 8
  %4 = alloca i32, align 4
  store ptr %0, ptr %2, align 8, !tbaa !3
  br label %5

5:                                                ; preds = %1
  br label %6

6:                                                ; preds = %5
  call void @llvm.lifetime.start.p0(i64 8, ptr %3) #3
  %7 = load ptr, ptr %2, align 8, !tbaa !3
  store ptr %7, ptr %3, align 8, !tbaa !3
  %8 = load ptr, ptr %3, align 8, !tbaa !3
  %9 = getelementptr inbounds nuw %struct._lv_menu_t, ptr %8, i32 0, i32 4
  %10 = load ptr, ptr %9, align 8, !tbaa !22
  %11 = icmp eq ptr %10, null
  br i1 %11, label %17, label %12

12:                                               ; preds = %6
  %13 = load ptr, ptr %3, align 8, !tbaa !3
  %14 = getelementptr inbounds nuw %struct._lv_menu_t, ptr %13, i32 0, i32 3
  %15 = load ptr, ptr %14, align 8, !tbaa !25
  %16 = icmp eq ptr %15, null
  br i1 %16, label %17, label %18

17:                                               ; preds = %12, %6
  store i32 1, ptr %4, align 4
  br label %72

18:                                               ; preds = %12
  %19 = load ptr, ptr %3, align 8, !tbaa !3
  %20 = getelementptr inbounds nuw %struct._lv_menu_t, ptr %19, i32 0, i32 16
  %21 = load i8, ptr %20, align 2
  %22 = lshr i8 %21, 1
  %23 = and i8 %22, 3
  %24 = zext i8 %23 to i32
  switch i32 %24, label %46 [
    i32 0, label %25
    i32 1, label %32
    i32 2, label %39
  ]

25:                                               ; preds = %18
  %26 = load ptr, ptr %3, align 8, !tbaa !3
  %27 = getelementptr inbounds nuw %struct._lv_menu_t, ptr %26, i32 0, i32 4
  %28 = load ptr, ptr %27, align 8, !tbaa !22
  call void @lv_obj_move_to_index(ptr noundef %28, i32 noundef 0)
  %29 = load ptr, ptr %3, align 8, !tbaa !3
  %30 = getelementptr inbounds nuw %struct._lv_menu_t, ptr %29, i32 0, i32 3
  %31 = load ptr, ptr %30, align 8, !tbaa !25
  call void @lv_obj_set_flex_grow(ptr noundef %31, i8 noundef zeroext 1)
  br label %46

32:                                               ; preds = %18
  %33 = load ptr, ptr %3, align 8, !tbaa !3
  %34 = getelementptr inbounds nuw %struct._lv_menu_t, ptr %33, i32 0, i32 4
  %35 = load ptr, ptr %34, align 8, !tbaa !22
  call void @lv_obj_move_to_index(ptr noundef %35, i32 noundef 0)
  %36 = load ptr, ptr %3, align 8, !tbaa !3
  %37 = getelementptr inbounds nuw %struct._lv_menu_t, ptr %36, i32 0, i32 3
  %38 = load ptr, ptr %37, align 8, !tbaa !25
  call void @lv_obj_set_flex_grow(ptr noundef %38, i8 noundef zeroext 0)
  br label %46

39:                                               ; preds = %18
  %40 = load ptr, ptr %3, align 8, !tbaa !3
  %41 = getelementptr inbounds nuw %struct._lv_menu_t, ptr %40, i32 0, i32 4
  %42 = load ptr, ptr %41, align 8, !tbaa !22
  call void @lv_obj_move_to_index(ptr noundef %42, i32 noundef 1)
  %43 = load ptr, ptr %3, align 8, !tbaa !3
  %44 = getelementptr inbounds nuw %struct._lv_menu_t, ptr %43, i32 0, i32 3
  %45 = load ptr, ptr %44, align 8, !tbaa !25
  call void @lv_obj_set_flex_grow(ptr noundef %45, i8 noundef zeroext 1)
  br label %46

46:                                               ; preds = %18, %39, %32, %25
  %47 = load ptr, ptr %3, align 8, !tbaa !3
  %48 = getelementptr inbounds nuw %struct._lv_menu_t, ptr %47, i32 0, i32 4
  %49 = load ptr, ptr %48, align 8, !tbaa !22
  %50 = call zeroext i1 @lv_obj_refr_size(ptr noundef %49)
  %51 = load ptr, ptr %3, align 8, !tbaa !3
  %52 = getelementptr inbounds nuw %struct._lv_menu_t, ptr %51, i32 0, i32 3
  %53 = load ptr, ptr %52, align 8, !tbaa !25
  %54 = call zeroext i1 @lv_obj_refr_size(ptr noundef %53)
  %55 = load ptr, ptr %3, align 8, !tbaa !3
  %56 = getelementptr inbounds nuw %struct._lv_menu_t, ptr %55, i32 0, i32 4
  %57 = load ptr, ptr %56, align 8, !tbaa !22
  call void @lv_obj_update_layout(ptr noundef %57)
  %58 = load ptr, ptr %3, align 8, !tbaa !3
  %59 = getelementptr inbounds nuw %struct._lv_menu_t, ptr %58, i32 0, i32 4
  %60 = load ptr, ptr %59, align 8, !tbaa !22
  %61 = call i32 @lv_obj_get_content_height(ptr noundef %60)
  %62 = icmp eq i32 %61, 0
  br i1 %62, label %63, label %67

63:                                               ; preds = %46
  %64 = load ptr, ptr %3, align 8, !tbaa !3
  %65 = getelementptr inbounds nuw %struct._lv_menu_t, ptr %64, i32 0, i32 4
  %66 = load ptr, ptr %65, align 8, !tbaa !22
  call void @lv_obj_add_flag(ptr noundef %66, i32 noundef 1)
  br label %71

67:                                               ; preds = %46
  %68 = load ptr, ptr %3, align 8, !tbaa !3
  %69 = getelementptr inbounds nuw %struct._lv_menu_t, ptr %68, i32 0, i32 4
  %70 = load ptr, ptr %69, align 8, !tbaa !22
  call void @lv_obj_remove_flag(ptr noundef %70, i32 noundef 1)
  br label %71

71:                                               ; preds = %67, %63
  store i32 0, ptr %4, align 4
  br label %72

72:                                               ; preds = %71, %17
  call void @llvm.lifetime.end.p0(i64 8, ptr %3) #3
  %73 = load i32, ptr %4, align 4
  switch i32 %73, label %75 [
    i32 0, label %74
    i32 1, label %74
  ]

74:                                               ; preds = %72, %72
  ret void

75:                                               ; preds = %72
  unreachable
}